target datalayout = "e-m:e-p270:32:32-p271:32:32-p272:64:64-i64:64-i128:128-f80:128-n8:16:32:64-S128"
target triple = "x86_64-unknown-linux-gnu"

%"class.rocksdb::(anonymous namespace)::SkipListRep" = type { %"class.rocksdb::MemTableRep", %"class.rocksdb::InlineSkipList", ptr, ptr, i64 }
%"class.rocksdb::MemTableRep" = type { ptr, ptr }
%"class.rocksdb::InlineSkipList" = type { i16, i16, i32, ptr, ptr, ptr, %"struct.std::atomic", ptr }
%"struct.std::atomic" = type { %"struct.std::__atomic_base" }
%"struct.std::__atomic_base" = type { i32 }
%"struct.rocksdb::InlineSkipList<const rocksdb::MemTableRep::KeyComparator &>::Splice" = type { i32, ptr, ptr }

; Function Attrs: mustprogress uwtable
define linkonce_odr noundef ptr @_ZN7rocksdb14InlineSkipListIRKNS_11MemTableRep13KeyComparatorEE20AllocateSpliceOnHeapEv(ptr noundef nonnull align 8 dereferenceable(48) %this) #0 comdat align 2 {
entry:
  %this.addr = alloca ptr, align 8
  %array_size = alloca i64, align 8
  %raw = alloca ptr, align 8
  %splice = alloca ptr, align 8
  store ptr %this, ptr %this.addr, align 8
  %this1 = load ptr, ptr %this.addr, align 8
  %kMaxHeight_ = getelementptr inbounds %"class.rocksdb::InlineSkipList", ptr %this1, i32 0, i32 0
  %0 = load i16, ptr %kMaxHeight_, align 8
  %conv = zext i16 %0 to i32
  %add = add nsw i32 %conv, 1
  %conv2 = sext i32 %add to i64
  %mul = mul i64 8, %conv2
  store i64 %mul, ptr %array_size, align 8
  %1 = load i64, ptr %array_size, align 8
  %mul3 = mul i64 %1, 2
  %add4 = add i64 24, %mul3
  %call = call noalias noundef nonnull ptr @_Znam(i64 noundef %add4) #19
  store ptr %call, ptr %raw, align 8
  %2 = load ptr, ptr %raw, align 8
  store ptr %2, ptr %splice, align 8
  %3 = load ptr, ptr %splice, align 8
  %height_ = getelementptr inbounds %"struct.rocksdb::InlineSkipList<const rocksdb::MemTableRep::KeyComparator &>::Splice", ptr %3, i32 0, i32 0
  store i32 0, ptr %height_, align 8
  %4 = load ptr, ptr %raw, align 8
  %add.ptr = getelementptr inbounds i8, ptr %4, i64 24
  %5 = load ptr, ptr %splice, align 8
  %prev_ = getelementptr inbounds %"struct.rocksdb::InlineSkipList<const rocksdb::MemTableRep::KeyComparator &>::Splice", ptr %5, i32 0, i32 1
  store ptr %add.ptr, ptr %prev_, align 8
  %6 = load ptr, ptr %raw, align 8
  %add.ptr5 = getelementptr inbounds i8, ptr %6, i64 24
  %7 = load i64, ptr %array_size, align 8
  %add.ptr6 = getelementptr inbounds i8, ptr %add.ptr5, i64 %7
  %8 = load ptr, ptr %splice, align 8
  %next_ = getelementptr inbounds %"struct.rocksdb::InlineSkipList<const rocksdb::MemTableRep::KeyComparator &>::Splice", ptr %8, i32 0, i32 2
  store ptr %add.ptr6, ptr %next_, align 8
  %9 = load ptr, ptr %splice, align 8
  ret ptr %9
}

; Function Attrs: mustprogress uwtable
define linkonce_odr noundef zeroext i1 @_ZN7rocksdb14InlineSkipListIRKNS_11MemTableRep13KeyComparatorEE26InsertWithHintConcurrentlyEPKcPPv(ptr noundef nonnull align 8 dereferenceable(48) %this, ptr noundef %key, ptr noundef %hint) #0 comdat align 2 {
entry:
  %this.addr = alloca ptr, align 8
  %key.addr = alloca ptr, align 8
  %hint.addr = alloca ptr, align 8
  %splice = alloca ptr, align 8
  store ptr %this, ptr %this.addr, align 8
  store ptr %key, ptr %key.addr, align 8
  store ptr %hint, ptr %hint.addr, align 8
  %this1 = load ptr, ptr %this.addr, align 8
  %0 = load ptr, ptr %hint.addr, align 8
  %1 = load ptr, ptr %0, align 8
  store ptr %1, ptr %splice, align 8
  %2 = load ptr, ptr %splice, align 8
  %cmp = icmp eq ptr %2, null
  br i1 %cmp, label %if.then, label %if.end

if.then:                                          ; preds = %entry
  %call = call noundef ptr @_ZN7rocksdb14InlineSkipListIRKNS_11MemTableRep13KeyComparatorEE20AllocateSpliceOnHeapEv(ptr noundef nonnull align 8 dereferenceable(48) %this1)
  store ptr %call, ptr %splice, align 8
  %3 = load ptr, ptr %splice, align 8
  %4 = load ptr, ptr %hint.addr, align 8
  store ptr %3, ptr %4, align 8
  br label %if.end

if.end:                                           ; preds = %if.then, %entry
  %5 = load ptr, ptr %key.addr, align 8
  %6 = load ptr, ptr %splice, align 8
  %call2 = call noundef zeroext i1 @_ZN7rocksdb14InlineSkipListIRKNS_11MemTableRep13KeyComparatorEE6InsertILb1EEEbPKcPNS5_6SpliceEb(ptr noundef nonnull align 8 dereferenceable(48) %this1, ptr noundef %5, ptr noundef %6, i1 noundef zeroext true)
  ret i1 %call2
}

; Function Attrs: mustprogress uwtable
define internal noundef zeroext i1 @_ZN7rocksdb12_GLOBAL__N_111SkipListRep29InsertKeyWithHintConcurrentlyEPvPS2_(ptr noundef nonnull align 8 dereferenceable(88) %this, ptr noundef %handle, ptr noundef %hint) unnamed_addr #0 align 2 {
entry:
  %this.addr = alloca ptr, align 8
  %handle.addr = alloca ptr, align 8
  %hint.addr = alloca ptr, align 8
  store ptr %this, ptr %this.addr, align 8
  store ptr %handle, ptr %handle.addr, align 8
  store ptr %hint, ptr %hint.addr, align 8
  %this1 = load ptr, ptr %this.addr, align 8
  %skip_list_ = getelementptr inbounds %"class.rocksdb::(anonymous namespace)::SkipListRep", ptr %this1, i32 0, i32 1
  %0 = load ptr, ptr %handle.addr, align 8
  %1 = load ptr, ptr %hint.addr, align 8
  %call = call noundef zeroext i1 @_ZN7rocksdb14InlineSkipListIRKNS_11MemTableRep13KeyComparatorEE26InsertWithHintConcurrentlyEPKcPPv(ptr noundef nonnull align 8 dereferenceable(48) %skip_list_, ptr noundef %0, ptr noundef %1)
  ret i1 %call
}